; Function Attrs: nounwind uwtable
define internal fastcc i32 @ftp_state_type_resp(ptr noundef %0, i32 noundef %1, i8 noundef zeroext %2) unnamed_addr #0 {
  %4 = getelementptr inbounds nuw i8, ptr %0, i64 24
  %5 = load ptr, ptr %4, align 8, !tbaa !105
  %.off = add i32 %1, -200
  %.not = icmp ult i32 %.off, 100
  br i1 %.not, label %7, label %6

6:                                                ; preds = %3
  tail call void (ptr, ptr, ...) @Curl_failf(ptr noundef nonnull %0, ptr noundef nonnull @.str.114) #10
  br label %29

7:                                                ; preds = %3
  %.not28 = icmp eq i32 %1, 200
  br i1 %.not28, label %20, label %8

8:                                                ; preds = %7
  %9 = getelementptr inbounds nuw i8, ptr %0, i64 2658
  %10 = load i64, ptr %9, align 2
  %11 = and i64 %10, 2147483648
  %.not26 = icmp eq i64 %11, 0
  br i1 %.not26, label %20, label %12

12:                                               ; preds = %8
  %13 = getelementptr inbounds nuw i8, ptr %0, i64 4864
  %14 = load ptr, ptr %13, align 8, !tbaa !102
  %.not27 = icmp eq ptr %14, null
  br i1 %.not27, label %19, label %15

15:                                               ; preds = %12
  %16 = getelementptr inbounds nuw i8, ptr %14, i64 8
  %17 = load i32, ptr %16, align 8, !tbaa !103
  %18 = icmp sgt i32 %17, 0
  br i1 %18, label %19, label %20

19:                                               ; preds = %15, %12
  tail call void (ptr, ptr, ...) @Curl_infof(ptr noundef nonnull %0, ptr noundef nonnull @.str.115, i32 noundef %1) #10
  br label %20

20:                                               ; preds = %8, %15, %19, %7
  switch i8 %2, label %29 [
    i8 19, label %21
    i8 20, label %23
    i8 21, label %25
    i8 22, label %27
  ]

21:                                               ; preds = %20
  %22 = tail call fastcc i32 @ftp_state_size(ptr noundef nonnull %0, ptr noundef %5)
  br label %29

23:                                               ; preds = %20
  %24 = tail call fastcc i32 @ftp_state_list(ptr noundef nonnull %0)
  br label %29

25:                                               ; preds = %20
  %26 = tail call fastcc i32 @ftp_state_quote(ptr noundef nonnull %0, i1 noundef zeroext true, i8 noundef zeroext 13)
  br label %29

27:                                               ; preds = %20
  %28 = tail call fastcc i32 @ftp_state_stor_prequote(ptr noundef nonnull %0)
  br label %29

29:                                               ; preds = %21, %25, %27, %23, %20, %6
  %.0 = phi i32 [ 17, %6 ], [ %22, %21 ], [ %24, %23 ], [ %26, %25 ], [ %28, %27 ], [ 0, %20 ]
  ret i32 %.0
}